target datalayout = "e-m:e-p270:32:32-p271:32:32-p272:64:64-i64:64-i128:128-f80:128-n8:16:32:64-S128"
target triple = "x86_64-pc-linux-gnu"

%"class.std::__cxx11::basic_string" = type { %"struct.std::__cxx11::basic_string<char>::_Alloc_hider", i64, %union.anon }
%"struct.std::__cxx11::basic_string<char>::_Alloc_hider" = type { ptr }
%union.anon = type { i64, [8 x i8] }
%struct.rocksdb_options_t = type { %"struct.rocksdb::Options" }
%"struct.rocksdb::Options" = type { %"struct.rocksdb::DBOptions.base", %"struct.rocksdb::ColumnFamilyOptions" }
%"struct.rocksdb::DBOptions.base" = type <{ i8, i8, i8, i8, i8, i8, i8, i8, i8, [7 x i8], ptr, %"class.std::shared_ptr", %"class.std::shared_ptr.2", %"class.std::shared_ptr.5", i8, [3 x i8], i32, i32, [4 x i8], i64, %"class.std::shared_ptr.8", i8, [7 x i8], %"class.std::vector", %"class.std::__cxx11::basic_string", %"class.std::__cxx11::basic_string", i64, i32, i32, i32, i32, i64, i64, i64, i64, i64, i32, [4 x i8], i64, i64, i64, i8, i8, i8, i8, i8, i8, [2 x i8], i32, i32, i8, [7 x i8], i64, i8, [7 x i8], i64, %"class.std::shared_ptr.14", i64, i64, i8, [7 x i8], i64, i64, i8, [7 x i8], %"class.std::vector.17", i8, [7 x i8], i64, i8, i8, i8, i8, [4 x i8], i64, i64, i64, i8, i8, i8, i8, [4 x i8], %"class.std::shared_ptr.22", ptr, i8, i8, i8, i8, i8, i8, i8, i8, i8, i8, i8, i8, i8, i8, [2 x i8], i64, %"class.std::shared_ptr.25", i8, [3 x i8], i32, i64, i8, [7 x i8], %"class.std::__cxx11::basic_string", %"class.rocksdb::SmallEnumSet", %"class.std::shared_ptr.28", i8, i8, [6 x i8], %"class.std::__cxx11::basic_string", i64, i64, i64, i8, i8 }>
%"class.std::shared_ptr" = type { %"class.std::__shared_ptr" }
%"class.std::__shared_ptr" = type { ptr, %"class.std::__shared_count" }
%"class.std::__shared_count" = type { ptr }
%"class.std::shared_ptr.2" = type { %"class.std::__shared_ptr.3" }
%"class.std::__shared_ptr.3" = type { ptr, %"class.std::__shared_count" }
%"class.std::shared_ptr.5" = type { %"class.std::__shared_ptr.6" }
%"class.std::__shared_ptr.6" = type { ptr, %"class.std::__shared_count" }
%"class.std::shared_ptr.8" = type { %"class.std::__shared_ptr.9" }
%"class.std::__shared_ptr.9" = type { ptr, %"class.std::__shared_count" }
%"class.std::vector" = type { %"struct.std::_Vector_base" }
%"struct.std::_Vector_base" = type { %"struct.std::_Vector_base<rocksdb::DbPath, std::allocator<rocksdb::DbPath>>::_Vector_impl" }
%"struct.std::_Vector_base<rocksdb::DbPath, std::allocator<rocksdb::DbPath>>::_Vector_impl" = type { %"struct.std::_Vector_base<rocksdb::DbPath, std::allocator<rocksdb::DbPath>>::_Vector_impl_data" }
%"struct.std::_Vector_base<rocksdb::DbPath, std::allocator<rocksdb::DbPath>>::_Vector_impl_data" = type { ptr, ptr, ptr }
%"class.std::shared_ptr.14" = type { %"class.std::__shared_ptr.15" }
%"class.std::__shared_ptr.15" = type { ptr, %"class.std::__shared_count" }
%"class.std::vector.17" = type { %"struct.std::_Vector_base.18" }
%"struct.std::_Vector_base.18" = type { %"struct.std::_Vector_base<std::shared_ptr<rocksdb::EventListener>, std::allocator<std::shared_ptr<rocksdb::EventListener>>>::_Vector_impl" }
%"struct.std::_Vector_base<std::shared_ptr<rocksdb::EventListener>, std::allocator<std::shared_ptr<rocksdb::EventListener>>>::_Vector_impl" = type { %"struct.std::_Vector_base<std::shared_ptr<rocksdb::EventListener>, std::allocator<std::shared_ptr<rocksdb::EventListener>>>::_Vector_impl_data" }
%"struct.std::_Vector_base<std::shared_ptr<rocksdb::EventListener>, std::allocator<std::shared_ptr<rocksdb::EventListener>>>::_Vector_impl_data" = type { ptr, ptr, ptr }
%"class.std::shared_ptr.22" = type { %"class.std::__shared_ptr.23" }
%"class.std::__shared_ptr.23" = type { ptr, %"class.std::__shared_count" }
%"class.std::shared_ptr.25" = type { %"class.std::__shared_ptr.26" }
%"class.std::__shared_ptr.26" = type { ptr, %"class.std::__shared_count" }
%"class.rocksdb::SmallEnumSet" = type { i64 }
%"class.std::shared_ptr.28" = type { %"class.std::__shared_ptr.29" }
%"class.std::__shared_ptr.29" = type { ptr, %"class.std::__shared_count" }
%"struct.rocksdb::ColumnFamilyOptions" = type { %"struct.rocksdb::AdvancedColumnFamilyOptions.base", ptr, %"class.std::shared_ptr.57", ptr, %"class.std::shared_ptr.60", i64, i8, i8, [6 x i8], %"struct.rocksdb::CompressionOptions", %"struct.rocksdb::CompressionOptions", i32, %"class.std::shared_ptr.31", i64, i64, i8, %"class.std::shared_ptr.63", %"class.std::vector", %"class.std::shared_ptr.66", %"class.std::shared_ptr.69", i32, i32 }
%"struct.rocksdb::AdvancedColumnFamilyOptions.base" = type <{ i32, i32, i32, [4 x i8], i64, i8, [7 x i8], i64, double, ptr, double, i8, [7 x i8], i64, %"class.std::shared_ptr.31", i32, [4 x i8], i64, %"class.std::vector.34", i32, i32, i32, [4 x i8], i64, i32, i8, [3 x i8], double, %"class.std::vector.39", i64, i64, i64, i8, i8, [2 x i8], %"class.rocksdb::CompactionOptionsUniversal", [4 x i8], %"struct.rocksdb::CompactionOptionsFIFO", i64, %"class.std::shared_ptr.49", %"class.std::vector.52", i64, i8, i8, i8, i8, i8, [3 x i8], i64, i64, i64, i8, i8, i8, [5 x i8], i64, i64, i8, [7 x i8], i64, i64, i8, i8, [6 x i8], double, double, i64, i32, [4 x i8], %"class.std::shared_ptr.22", i8, [3 x i8], i32, i8, i8, [2 x i8], i32, i8 }>
%"class.std::vector.34" = type { %"struct.std::_Vector_base.35" }
%"struct.std::_Vector_base.35" = type { %"struct.std::_Vector_base<rocksdb::CompressionType, std::allocator<rocksdb::CompressionType>>::_Vector_impl" }
%"struct.std::_Vector_base<rocksdb::CompressionType, std::allocator<rocksdb::CompressionType>>::_Vector_impl" = type { %"struct.std::_Vector_base<rocksdb::CompressionType, std::allocator<rocksdb::CompressionType>>::_Vector_impl_data" }
%"struct.std::_Vector_base<rocksdb::CompressionType, std::allocator<rocksdb::CompressionType>>::_Vector_impl_data" = type { ptr, ptr, ptr }
%"class.std::vector.39" = type { %"struct.std::_Vector_base.40" }
%"struct.std::_Vector_base.40" = type { %"struct.std::_Vector_base<int, std::allocator<int>>::_Vector_impl" }
%"struct.std::_Vector_base<int, std::allocator<int>>::_Vector_impl" = type { %"struct.std::_Vector_base<int, std::allocator<int>>::_Vector_impl_data" }
%"struct.std::_Vector_base<int, std::allocator<int>>::_Vector_impl_data" = type { ptr, ptr, ptr }
%"class.rocksdb::CompactionOptionsUniversal" = type <{ i32, i32, i32, i32, i32, i32, i32, i8, i8, [2 x i8] }>
%"struct.rocksdb::CompactionOptionsFIFO" = type { i64, i8, i64, %"class.std::vector.44" }
%"class.std::vector.44" = type { %"struct.std::_Vector_base.45" }
%"struct.std::_Vector_base.45" = type { %"struct.std::_Vector_base<rocksdb::FileTemperatureAge, std::allocator<rocksdb::FileTemperatureAge>>::_Vector_impl" }
%"struct.std::_Vector_base<rocksdb::FileTemperatureAge, std::allocator<rocksdb::FileTemperatureAge>>::_Vector_impl" = type { %"struct.std::_Vector_base<rocksdb::FileTemperatureAge, std::allocator<rocksdb::FileTemperatureAge>>::_Vector_impl_data" }
%"struct.std::_Vector_base<rocksdb::FileTemperatureAge, std::allocator<rocksdb::FileTemperatureAge>>::_Vector_impl_data" = type { ptr, ptr, ptr }
%"class.std::shared_ptr.49" = type { %"class.std::__shared_ptr.50" }
%"class.std::__shared_ptr.50" = type { ptr, %"class.std::__shared_count" }
%"class.std::vector.52" = type { %"struct.std::_Vector_base.53" }
%"struct.std::_Vector_base.53" = type { %"struct.std::_Vector_base<std::shared_ptr<rocksdb::TablePropertiesCollectorFactory>, std::allocator<std::shared_ptr<rocksdb::TablePropertiesCollectorFactory>>>::_Vector_impl" }
%"struct.std::_Vector_base<std::shared_ptr<rocksdb::TablePropertiesCollectorFactory>, std::allocator<std::shared_ptr<rocksdb::TablePropertiesCollectorFactory>>>::_Vector_impl" = type { %"struct.std::_Vector_base<std::shared_ptr<rocksdb::TablePropertiesCollectorFactory>, std::allocator<std::shared_ptr<rocksdb::TablePropertiesCollectorFactory>>>::_Vector_impl_data" }
%"struct.std::_Vector_base<std::shared_ptr<rocksdb::TablePropertiesCollectorFactory>, std::allocator<std::shared_ptr<rocksdb::TablePropertiesCollectorFactory>>>::_Vector_impl_data" = type { ptr, ptr, ptr }
%"class.std::shared_ptr.57" = type { %"class.std::__shared_ptr.58" }
%"class.std::__shared_ptr.58" = type { ptr, %"class.std::__shared_count" }
%"class.std::shared_ptr.60" = type { %"class.std::__shared_ptr.61" }
%"class.std::__shared_ptr.61" = type { ptr, %"class.std::__shared_count" }
%"struct.rocksdb::CompressionOptions" = type <{ i32, i32, i32, i32, i32, i32, i8, [7 x i8], i64, i8, [3 x i8], i32, i8, [7 x i8] }>
%"class.std::shared_ptr.31" = type { %"class.std::__shared_ptr.32" }
%"class.std::__shared_ptr.32" = type { ptr, %"class.std::__shared_count" }
%"class.std::shared_ptr.63" = type { %"class.std::__shared_ptr.64" }
%"class.std::__shared_ptr.64" = type { ptr, %"class.std::__shared_count" }
%"class.std::shared_ptr.66" = type { %"class.std::__shared_ptr.67" }
%"class.std::__shared_ptr.67" = type { ptr, %"class.std::__shared_count" }
%"class.std::shared_ptr.69" = type { %"class.std::__shared_ptr.70" }
%"class.std::__shared_ptr.70" = type { ptr, %"class.std::__shared_count" }
%struct.rocksdb_cuckoo_table_options_t = type { %"struct.rocksdb::CuckooTableOptions" }
%"struct.rocksdb::CuckooTableOptions" = type <{ double, i32, i32, i8, i8, [6 x i8] }>

; Function Attrs: mustprogress uwtable
define void @rocksdb_options_set_cuckoo_table_factory(ptr noundef %0, ptr noundef %1) #0 {
  %3 = alloca ptr, align 8
  %4 = alloca ptr, align 8
  store ptr %0, ptr %3, align 8, !tbaa !4
  store ptr %1, ptr %4, align 8, !tbaa !553
  %5 = load ptr, ptr %4, align 8, !tbaa !553
  %6 = icmp ne ptr %5, null
  br i1 %6, label %7, label %15

7:                                                ; preds = %2
  %8 = load ptr, ptr %3, align 8, !tbaa !4
  %9 = getelementptr inbounds nuw %struct.rocksdb_options_t, ptr %8, i32 0, i32 0
  %10 = getelementptr inbounds i8, ptr %9, i64 712
  %11 = getelementptr inbounds nuw %"struct.rocksdb::ColumnFamilyOptions", ptr %10, i32 0, i32 16
  %12 = load ptr, ptr %4, align 8, !tbaa !553
  %13 = getelementptr inbounds nuw %struct.rocksdb_cuckoo_table_options_t, ptr %12, i32 0, i32 0
  %14 = call noundef ptr @_ZN7rocksdb21NewCuckooTableFactoryERKNS_18CuckooTableOptionsE(ptr noundef nonnull align 8 dereferenceable(18) %13)
  call void @_ZNSt12__shared_ptrIN7rocksdb12TableFactoryELN9__gnu_cxx12_Lock_policyE2EE5resetIS1_EENSt9enable_ifIXsr21__sp_is_constructibleIS1_T_EE5valueEvE4typeEPS7_(ptr noundef nonnull align 8 dereferenceable(16) %11, ptr noundef %14)
  br label %15

15:                                               ; preds = %7, %2
  ret void
}