; Function Attrs: mustprogress uwtable
define void @rocksdb_options_set_cuckoo_table_factory(ptr noundef %0, ptr noundef %1) local_unnamed_addr #0 {
  %.not = icmp eq ptr %1, null
  br i1 %.not, label %6, label %3

3:                                                ; preds = %2
  %4 = getelementptr inbounds nuw i8, ptr %0, i64 1464
  %5 = tail call noundef ptr @_ZN7rocksdb21NewCuckooTableFactoryERKNS_18CuckooTableOptionsE(ptr noundef nonnull align 8 dereferenceable(18) %1)
  tail call void @_ZNSt12__shared_ptrIN7rocksdb12TableFactoryELN9__gnu_cxx12_Lock_policyE2EE5resetIS1_EENSt9enable_ifIXsr21__sp_is_constructibleIS1_T_EE5valueEvE4typeEPS7_(ptr noundef nonnull align 8 dereferenceable(16) %4, ptr noundef %5)
  br label %6

6:                                                ; preds = %3, %2
  ret void
}